; Function Attrs: mustprogress uwtable
define hidden noundef zeroext i1 @_ZN4cvc58internal8decision21JustificationStrategy15isTheoryLiteralENS0_12NodeTemplateILb0EEE(ptr nocapture noundef readonly %n) local_unnamed_addr #3 align 2 personality ptr @__gxx_personality_v0 {
entry:
  %agg.tmp = alloca %"class.cvc5::internal::NodeTemplate", align 8
  %0 = load ptr, ptr %n, align 8
  %d_kind.i = getelementptr inbounds i8, ptr %0, i64 8
  %bf.load.i = load i16, ptr %d_kind.i, align 8
  %bf.clear.i = and i16 %bf.load.i, 1023
  %cmp.not = icmp eq i16 %bf.clear.i, 18
  br i1 %cmp.not, label %cond.true, label %cond.end

cond.true:                                        ; preds = %entry
  %call2.i.i.i = tail call noundef i32 @_ZN4cvc58internal4kind10metaKindOfENS1_6Kind_tE(i32 noundef 18), !noalias !69
  %cmp.i.i = icmp eq i32 %call2.i.i.i, 2
  %d_children.i.i = getelementptr inbounds i8, ptr %0, i64 16
  %idxprom.i.i = zext i1 %cmp.i.i to i64
  %arrayidx.i.i = getelementptr inbounds [0 x ptr], ptr %d_children.i.i, i64 0, i64 %idxprom.i.i
  %1 = load ptr, ptr %arrayidx.i.i, align 8, !noalias !69
  br label %cond.end

cond.end:                                         ; preds = %entry, %cond.true
  %storemerge = phi ptr [ %1, %cond.true ], [ %0, %entry ]
  store ptr %storemerge, ptr %agg.tmp, align 8
  %call4 = call noundef zeroext i1 @_ZN4cvc58internal4expr12isTheoryAtomENS0_12NodeTemplateILb0EEE(ptr noundef nonnull %agg.tmp)
  ret i1 %call4
}